target datalayout = "e-m:e-p270:32:32-p271:32:32-p272:64:64-i64:64-i128:128-f80:128-n8:16:32:64-S128"
target triple = "x86_64-pc-linux-gnu"

%"class.icu_77::RegexCompile" = type { ptr, ptr, ptr, ptr, i64, i8, i8, i8, i64, i64, i32, i32, %"struct.icu_77::RegexCompile::RegexPatternChar", [100 x i16], i32, i32, i32, i8, %"class.icu_77::UnicodeString", i64, %"class.icu_77::UVector32", i32, i32, i32, i32, %"class.icu_77::UStack", %"class.icu_77::UStack", i32, ptr }
%"struct.icu_77::RegexCompile::RegexPatternChar" = type { i32, i8 }
%"class.icu_77::UnicodeString" = type { %"class.icu_77::Replaceable", %"union.icu_77::UnicodeString::StackBufferOrFields" }
%"class.icu_77::Replaceable" = type { %"class.icu_77::UObject" }
%"class.icu_77::UObject" = type { ptr }
%"union.icu_77::UnicodeString::StackBufferOrFields" = type { %struct.anon.0, [32 x i8] }
%struct.anon.0 = type { i16, i32, i32, ptr }
%"class.icu_77::UVector32" = type { %"class.icu_77::UObject", i32, i32, i32, ptr }
%"class.icu_77::UStack" = type { %"class.icu_77::UVector" }
%"class.icu_77::UVector" = type { %"class.icu_77::UObject", i32, i32, ptr, ptr, ptr }
%"class.icu_77::RegexPattern" = type { %"class.icu_77::UObject", ptr, ptr, i32, ptr, %"class.icu_77::UnicodeString", ptr, ptr, i32, i32, i32, i32, ptr, i32, i32, i32, ptr, i32, ptr, i8, ptr }
%struct.UParseError = type { i32, i32, [16 x i16], [16 x i16] }

; Function Attrs: inlinehint mustprogress nounwind uwtable
define internal noundef signext i8 @_ZL9U_SUCCESS10UErrorCode(i32 noundef %0) #2 {
  %2 = alloca i32, align 4
  store i32 %0, ptr %2, align 4, !tbaa !15
  %3 = load i32, ptr %2, align 4, !tbaa !15
  %4 = icmp sle i32 %3, 0
  %5 = zext i1 %4 to i8
  ret i8 %5
}

; Function Attrs: mustprogress uwtable
define void @_ZN6icu_7712RegexCompile5errorE10UErrorCode(ptr noundef nonnull align 8 dereferenceable(512) %0, i32 noundef %1) #1 align 2 {
  %3 = alloca ptr, align 8
  %4 = alloca i32, align 4
  %5 = alloca i32, align 4
  store ptr %0, ptr %3, align 8, !tbaa !23
  store i32 %1, ptr %4, align 4, !tbaa !15
  %6 = load ptr, ptr %3, align 8
  %7 = getelementptr inbounds nuw %"class.icu_77::RegexCompile", ptr %6, i32 0, i32 1
  %8 = load ptr, ptr %7, align 8, !tbaa !29
  %9 = load i32, ptr %8, align 4, !tbaa !15
  %10 = call noundef signext i8 @_ZL9U_SUCCESS10UErrorCode(i32 noundef %9)
  %11 = icmp ne i8 %10, 0
  br i1 %11, label %15, label %12

12:                                               ; preds = %2
  %13 = load i32, ptr %4, align 4, !tbaa !15
  %14 = icmp eq i32 %13, 7
  br i1 %14, label %15, label %96

15:                                               ; preds = %12, %2
  %16 = load i32, ptr %4, align 4, !tbaa !15
  %17 = getelementptr inbounds nuw %"class.icu_77::RegexCompile", ptr %6, i32 0, i32 1
  %18 = load ptr, ptr %17, align 8, !tbaa !29
  store i32 %16, ptr %18, align 4, !tbaa !15
  %19 = getelementptr inbounds nuw %"class.icu_77::RegexCompile", ptr %6, i32 0, i32 8
  %20 = load i64, ptr %19, align 8, !tbaa !45
  %21 = icmp sgt i64 %20, 2147483647
  br i1 %21, label %22, label %29

22:                                               ; preds = %15
  %23 = getelementptr inbounds nuw %"class.icu_77::RegexCompile", ptr %6, i32 0, i32 3
  %24 = load ptr, ptr %23, align 8, !tbaa !70
  %25 = getelementptr inbounds nuw %struct.UParseError, ptr %24, i32 0, i32 0
  store i32 0, ptr %25, align 4, !tbaa !136
  %26 = getelementptr inbounds nuw %"class.icu_77::RegexCompile", ptr %6, i32 0, i32 3
  %27 = load ptr, ptr %26, align 8, !tbaa !70
  %28 = getelementptr inbounds nuw %struct.UParseError, ptr %27, i32 0, i32 1
  store i32 -1, ptr %28, align 4, !tbaa !138
  br label %57

29:                                               ; preds = %15
  %30 = getelementptr inbounds nuw %"class.icu_77::RegexCompile", ptr %6, i32 0, i32 9
  %31 = load i64, ptr %30, align 8, !tbaa !46
  %32 = icmp sgt i64 %31, 2147483647
  br i1 %32, label %33, label %43

33:                                               ; preds = %29
  %34 = getelementptr inbounds nuw %"class.icu_77::RegexCompile", ptr %6, i32 0, i32 8
  %35 = load i64, ptr %34, align 8, !tbaa !45
  %36 = trunc i64 %35 to i32
  %37 = getelementptr inbounds nuw %"class.icu_77::RegexCompile", ptr %6, i32 0, i32 3
  %38 = load ptr, ptr %37, align 8, !tbaa !70
  %39 = getelementptr inbounds nuw %struct.UParseError, ptr %38, i32 0, i32 0
  store i32 %36, ptr %39, align 4, !tbaa !136
  %40 = getelementptr inbounds nuw %"class.icu_77::RegexCompile", ptr %6, i32 0, i32 3
  %41 = load ptr, ptr %40, align 8, !tbaa !70
  %42 = getelementptr inbounds nuw %struct.UParseError, ptr %41, i32 0, i32 1
  store i32 -1, ptr %42, align 4, !tbaa !138
  br label %56

43:                                               ; preds = %29
  %44 = getelementptr inbounds nuw %"class.icu_77::RegexCompile", ptr %6, i32 0, i32 8
  %45 = load i64, ptr %44, align 8, !tbaa !45
  %46 = trunc i64 %45 to i32
  %47 = getelementptr inbounds nuw %"class.icu_77::RegexCompile", ptr %6, i32 0, i32 3
  %48 = load ptr, ptr %47, align 8, !tbaa !70
  %49 = getelementptr inbounds nuw %struct.UParseError, ptr %48, i32 0, i32 0
  store i32 %46, ptr %49, align 4, !tbaa !136
  %50 = getelementptr inbounds nuw %"class.icu_77::RegexCompile", ptr %6, i32 0, i32 9
  %51 = load i64, ptr %50, align 8, !tbaa !46
  %52 = trunc i64 %51 to i32
  %53 = getelementptr inbounds nuw %"class.icu_77::RegexCompile", ptr %6, i32 0, i32 3
  %54 = load ptr, ptr %53, align 8, !tbaa !70
  %55 = getelementptr inbounds nuw %struct.UParseError, ptr %54, i32 0, i32 1
  store i32 %52, ptr %55, align 4, !tbaa !138
  br label %56

56:                                               ; preds = %43, %33
  br label %57

57:                                               ; preds = %56, %22
  call void @llvm.lifetime.start.p0(i64 4, ptr %5) #13
  store i32 0, ptr %5, align 4, !tbaa !15
  %58 = getelementptr inbounds nuw %"class.icu_77::RegexCompile", ptr %6, i32 0, i32 3
  %59 = load ptr, ptr %58, align 8, !tbaa !70
  %60 = getelementptr inbounds nuw %struct.UParseError, ptr %59, i32 0, i32 2
  %61 = getelementptr inbounds [16 x i16], ptr %60, i64 0, i64 0
  call void @llvm.memset.p0.i64(ptr align 4 %61, i8 0, i64 32, i1 false)
  %62 = getelementptr inbounds nuw %"class.icu_77::RegexCompile", ptr %6, i32 0, i32 3
  %63 = load ptr, ptr %62, align 8, !tbaa !70
  %64 = getelementptr inbounds nuw %struct.UParseError, ptr %63, i32 0, i32 3
  %65 = getelementptr inbounds [16 x i16], ptr %64, i64 0, i64 0
  call void @llvm.memset.p0.i64(ptr align 4 %65, i8 0, i64 32, i1 false)
  %66 = getelementptr inbounds nuw %"class.icu_77::RegexCompile", ptr %6, i32 0, i32 2
  %67 = load ptr, ptr %66, align 8, !tbaa !41
  %68 = getelementptr inbounds nuw %"class.icu_77::RegexPattern", ptr %67, i32 0, i32 1
  %69 = load ptr, ptr %68, align 8, !tbaa !74
  %70 = getelementptr inbounds nuw %"class.icu_77::RegexCompile", ptr %6, i32 0, i32 4
  %71 = load i64, ptr %70, align 8, !tbaa !42
  %72 = sub nsw i64 %71, 16
  %73 = add nsw i64 %72, 1
  %74 = getelementptr inbounds nuw %"class.icu_77::RegexCompile", ptr %6, i32 0, i32 4
  %75 = load i64, ptr %74, align 8, !tbaa !42
  %76 = getelementptr inbounds nuw %"class.icu_77::RegexCompile", ptr %6, i32 0, i32 3
  %77 = load ptr, ptr %76, align 8, !tbaa !70
  %78 = getelementptr inbounds nuw %struct.UParseError, ptr %77, i32 0, i32 2
  %79 = getelementptr inbounds [16 x i16], ptr %78, i64 0, i64 0
  %80 = call i32 @utext_extract_77(ptr noundef %69, i64 noundef %73, i64 noundef %75, ptr noundef %79, i32 noundef 16, ptr noundef %5)
  %81 = getelementptr inbounds nuw %"class.icu_77::RegexCompile", ptr %6, i32 0, i32 2
  %82 = load ptr, ptr %81, align 8, !tbaa !41
  %83 = getelementptr inbounds nuw %"class.icu_77::RegexPattern", ptr %82, i32 0, i32 1
  %84 = load ptr, ptr %83, align 8, !tbaa !74
  %85 = getelementptr inbounds nuw %"class.icu_77::RegexCompile", ptr %6, i32 0, i32 4
  %86 = load i64, ptr %85, align 8, !tbaa !42
  %87 = getelementptr inbounds nuw %"class.icu_77::RegexCompile", ptr %6, i32 0, i32 4
  %88 = load i64, ptr %87, align 8, !tbaa !42
  %89 = add nsw i64 %88, 16
  %90 = sub nsw i64 %89, 1
  %91 = getelementptr inbounds nuw %"class.icu_77::RegexCompile", ptr %6, i32 0, i32 3
  %92 = load ptr, ptr %91, align 8, !tbaa !70
  %93 = getelementptr inbounds nuw %struct.UParseError, ptr %92, i32 0, i32 3
  %94 = getelementptr inbounds [16 x i16], ptr %93, i64 0, i64 0
  %95 = call i32 @utext_extract_77(ptr noundef %84, i64 noundef %86, i64 noundef %90, ptr noundef %94, i32 noundef 16, ptr noundef %5)
  call void @llvm.lifetime.end.p0(i64 4, ptr %5) #13
  br label %96

96:                                               ; preds = %57, %12
  ret void
}

; Function Attrs: inlinehint mustprogress nounwind uwtable
define internal noundef signext i8 @_ZL9U_FAILURE10UErrorCode(i32 noundef %0) #2 {
  %2 = alloca i32, align 4
  store i32 %0, ptr %2, align 4, !tbaa !15
  %3 = load i32, ptr %2, align 4, !tbaa !15
  %4 = icmp sgt i32 %3, 0
  %5 = zext i1 %4 to i8
  ret i8 %5
}

; Function Attrs: mustprogress uwtable
define noundef i32 @_ZN6icu_7712RegexCompile12allocateDataEi(ptr noundef nonnull align 8 dereferenceable(512) %0, i32 noundef %1) #1 align 2 {
  %3 = alloca i32, align 4
  %4 = alloca ptr, align 8
  %5 = alloca i32, align 4
  %6 = alloca i32, align 4
  store ptr %0, ptr %4, align 8, !tbaa !23
  store i32 %1, ptr %5, align 4, !tbaa !14
  %7 = load ptr, ptr %4, align 8
  %8 = getelementptr inbounds nuw %"class.icu_77::RegexCompile", ptr %7, i32 0, i32 1
  %9 = load ptr, ptr %8, align 8, !tbaa !29
  %10 = load i32, ptr %9, align 4, !tbaa !15
  %11 = call noundef signext i8 @_ZL9U_FAILURE10UErrorCode(i32 noundef %10)
  %12 = icmp ne i8 %11, 0
  br i1 %12, label %13, label %14

13:                                               ; preds = %2
  store i32 0, ptr %3, align 4
  br label %46

14:                                               ; preds = %2
  %15 = load i32, ptr %5, align 4, !tbaa !14
  %16 = icmp sle i32 %15, 0
  br i1 %16, label %26, label %17

17:                                               ; preds = %14
  %18 = load i32, ptr %5, align 4, !tbaa !14
  %19 = icmp sgt i32 %18, 256
  br i1 %19, label %26, label %20

20:                                               ; preds = %17
  %21 = getelementptr inbounds nuw %"class.icu_77::RegexCompile", ptr %7, i32 0, i32 2
  %22 = load ptr, ptr %21, align 8, !tbaa !41
  %23 = getelementptr inbounds nuw %"class.icu_77::RegexPattern", ptr %22, i32 0, i32 11
  %24 = load i32, ptr %23, align 4, !tbaa !168
  %25 = icmp slt i32 %24, 0
  br i1 %25, label %26, label %27

26:                                               ; preds = %20, %17, %14
  call void @_ZN6icu_7712RegexCompile5errorE10UErrorCode(ptr noundef nonnull align 8 dereferenceable(512) %7, i32 noundef 66304)
  store i32 0, ptr %3, align 4
  br label %46

27:                                               ; preds = %20
  call void @llvm.lifetime.start.p0(i64 4, ptr %6) #13
  %28 = getelementptr inbounds nuw %"class.icu_77::RegexCompile", ptr %7, i32 0, i32 2
  %29 = load ptr, ptr %28, align 8, !tbaa !41
  %30 = getelementptr inbounds nuw %"class.icu_77::RegexPattern", ptr %29, i32 0, i32 11
  %31 = load i32, ptr %30, align 4, !tbaa !168
  store i32 %31, ptr %6, align 4, !tbaa !14
  %32 = load i32, ptr %5, align 4, !tbaa !14
  %33 = getelementptr inbounds nuw %"class.icu_77::RegexCompile", ptr %7, i32 0, i32 2
  %34 = load ptr, ptr %33, align 8, !tbaa !41
  %35 = getelementptr inbounds nuw %"class.icu_77::RegexPattern", ptr %34, i32 0, i32 11
  %36 = load i32, ptr %35, align 4, !tbaa !168
  %37 = add nsw i32 %36, %32
  store i32 %37, ptr %35, align 4, !tbaa !168
  %38 = getelementptr inbounds nuw %"class.icu_77::RegexCompile", ptr %7, i32 0, i32 2
  %39 = load ptr, ptr %38, align 8, !tbaa !41
  %40 = getelementptr inbounds nuw %"class.icu_77::RegexPattern", ptr %39, i32 0, i32 11
  %41 = load i32, ptr %40, align 4, !tbaa !168
  %42 = icmp sge i32 %41, 16777200
  br i1 %42, label %43, label %44

43:                                               ; preds = %27
  call void @_ZN6icu_7712RegexCompile5errorE10UErrorCode(ptr noundef nonnull align 8 dereferenceable(512) %7, i32 noundef 66304)
  br label %44

44:                                               ; preds = %43, %27
  %45 = load i32, ptr %6, align 4, !tbaa !14
  store i32 %45, ptr %3, align 4
  call void @llvm.lifetime.end.p0(i64 4, ptr %6) #13
  br label %46

46:                                               ; preds = %44, %26, %13
  %47 = load i32, ptr %3, align 4
  ret i32 %47
}