; Function Attrs: mustprogress uwtable
define noundef range(i32 0, -2147483648) i32 @_ZN6icu_7712RegexCompile12allocateDataEi(ptr noundef nonnull readonly align 8 captures(none) dereferenceable(512) %0, i32 noundef %1) local_unnamed_addr #1 align 2 {
  %3 = alloca i32, align 4
  %4 = alloca i32, align 4
  %5 = getelementptr inbounds nuw i8, ptr %0, i64 8
  %6 = load ptr, ptr %5, align 8, !tbaa !18
  %7 = load i32, ptr %6, align 4, !tbaa !13
  %8 = icmp slt i32 %7, 1
  br i1 %8, label %9, label %_ZN6icu_7712RegexCompile5errorE10UErrorCode.exit

9:                                                ; preds = %2
  %10 = add i32 %1, -257
  %or.cond = icmp ult i32 %10, -256
  br i1 %or.cond, label %17, label %11

11:                                               ; preds = %9
  %12 = getelementptr inbounds nuw i8, ptr %0, i64 16
  %13 = load ptr, ptr %12, align 8, !tbaa !33
  %14 = getelementptr inbounds nuw i8, ptr %13, i64 132
  %15 = load i32, ptr %14, align 4, !tbaa !148
  %16 = icmp slt i32 %15, 0
  br i1 %16, label %17, label %56

17:                                               ; preds = %9, %11
  store i32 66304, ptr %6, align 4, !tbaa !13
  %18 = getelementptr inbounds nuw i8, ptr %0, i64 48
  %19 = load i64, ptr %18, align 8, !tbaa !37
  %20 = icmp sgt i64 %19, 2147483647
  br i1 %20, label %21, label %24

21:                                               ; preds = %17
  %22 = getelementptr inbounds nuw i8, ptr %0, i64 24
  %23 = load ptr, ptr %22, align 8, !tbaa !58
  store i32 0, ptr %23, align 4, !tbaa !73
  br label %32

24:                                               ; preds = %17
  %25 = getelementptr inbounds nuw i8, ptr %0, i64 56
  %26 = load i64, ptr %25, align 8, !tbaa !38
  %27 = icmp sgt i64 %26, 2147483647
  %28 = trunc i64 %19 to i32
  %29 = getelementptr inbounds nuw i8, ptr %0, i64 24
  %30 = load ptr, ptr %29, align 8, !tbaa !58
  store i32 %28, ptr %30, align 4, !tbaa !73
  %31 = trunc i64 %26 to i32
  %spec.select.i = select i1 %27, i32 -1, i32 %31
  br label %32

32:                                               ; preds = %24, %21
  %.sink4.i = phi ptr [ %23, %21 ], [ %30, %24 ]
  %.sink.i = phi i32 [ -1, %21 ], [ %spec.select.i, %24 ]
  %33 = getelementptr inbounds nuw i8, ptr %.sink4.i, i64 4
  store i32 %.sink.i, ptr %33, align 4, !tbaa !75
  call void @llvm.lifetime.start.p0(i64 4, ptr nonnull %4) #15
  store i32 0, ptr %4, align 4, !tbaa !13
  %34 = getelementptr inbounds nuw i8, ptr %0, i64 24
  %35 = getelementptr inbounds nuw i8, ptr %.sink4.i, i64 8
  tail call void @llvm.memset.p0.i64(ptr noundef nonnull align 4 dereferenceable(32) %35, i8 0, i64 32, i1 false)
  %36 = load ptr, ptr %34, align 8, !tbaa !58
  %37 = getelementptr inbounds nuw i8, ptr %36, i64 40
  tail call void @llvm.memset.p0.i64(ptr noundef nonnull align 4 dereferenceable(32) %37, i8 0, i64 32, i1 false)
  %38 = getelementptr inbounds nuw i8, ptr %0, i64 16
  %39 = load ptr, ptr %38, align 8, !tbaa !33
  %40 = getelementptr inbounds nuw i8, ptr %39, i64 8
  %41 = load ptr, ptr %40, align 8, !tbaa !62
  %42 = getelementptr inbounds nuw i8, ptr %0, i64 32
  %43 = load i64, ptr %42, align 8, !tbaa !34
  %44 = add nsw i64 %43, -15
  %45 = load ptr, ptr %34, align 8, !tbaa !58
  %46 = getelementptr inbounds nuw i8, ptr %45, i64 8
  %47 = call i32 @utext_extract_77(ptr noundef %41, i64 noundef %44, i64 noundef %43, ptr noundef nonnull %46, i32 noundef 16, ptr noundef nonnull %4)
  %48 = load ptr, ptr %38, align 8, !tbaa !33
  %49 = getelementptr inbounds nuw i8, ptr %48, i64 8
  %50 = load ptr, ptr %49, align 8, !tbaa !62
  %51 = load i64, ptr %42, align 8, !tbaa !34
  %52 = add nsw i64 %51, 15
  %53 = load ptr, ptr %34, align 8, !tbaa !58
  %54 = getelementptr inbounds nuw i8, ptr %53, i64 40
  %55 = call i32 @utext_extract_77(ptr noundef %50, i64 noundef %51, i64 noundef %52, ptr noundef nonnull %54, i32 noundef 16, ptr noundef nonnull %4)
  call void @llvm.lifetime.end.p0(i64 4, ptr nonnull %4) #15
  br label %_ZN6icu_7712RegexCompile5errorE10UErrorCode.exit

56:                                               ; preds = %11
  %57 = add nuw nsw i32 %15, %1
  store i32 %57, ptr %14, align 4, !tbaa !148
  %58 = icmp samesign ugt i32 %57, 16777199
  br i1 %58, label %59, label %_ZN6icu_7712RegexCompile5errorE10UErrorCode.exit

59:                                               ; preds = %56
  store i32 66304, ptr %6, align 4, !tbaa !13
  %60 = getelementptr inbounds nuw i8, ptr %0, i64 48
  %61 = load i64, ptr %60, align 8, !tbaa !37
  %62 = icmp sgt i64 %61, 2147483647
  br i1 %62, label %63, label %66

63:                                               ; preds = %59
  %64 = getelementptr inbounds nuw i8, ptr %0, i64 24
  %65 = load ptr, ptr %64, align 8, !tbaa !58
  store i32 0, ptr %65, align 4, !tbaa !73
  br label %74

66:                                               ; preds = %59
  %67 = getelementptr inbounds nuw i8, ptr %0, i64 56
  %68 = load i64, ptr %67, align 8, !tbaa !38
  %69 = icmp sgt i64 %68, 2147483647
  %70 = trunc i64 %61 to i32
  %71 = getelementptr inbounds nuw i8, ptr %0, i64 24
  %72 = load ptr, ptr %71, align 8, !tbaa !58
  store i32 %70, ptr %72, align 4, !tbaa !73
  %73 = trunc i64 %68 to i32
  %spec.select.i8 = select i1 %69, i32 -1, i32 %73
  br label %74

74:                                               ; preds = %66, %63
  %.sink4.i9 = phi ptr [ %65, %63 ], [ %72, %66 ]
  %.sink.i10 = phi i32 [ -1, %63 ], [ %spec.select.i8, %66 ]
  %75 = getelementptr inbounds nuw i8, ptr %.sink4.i9, i64 4
  store i32 %.sink.i10, ptr %75, align 4, !tbaa !75
  call void @llvm.lifetime.start.p0(i64 4, ptr nonnull %3) #15
  store i32 0, ptr %3, align 4, !tbaa !13
  %76 = getelementptr inbounds nuw i8, ptr %0, i64 24
  %77 = getelementptr inbounds nuw i8, ptr %.sink4.i9, i64 8
  tail call void @llvm.memset.p0.i64(ptr noundef nonnull align 4 dereferenceable(32) %77, i8 0, i64 32, i1 false)
  %78 = load ptr, ptr %76, align 8, !tbaa !58
  %79 = getelementptr inbounds nuw i8, ptr %78, i64 40
  tail call void @llvm.memset.p0.i64(ptr noundef nonnull align 4 dereferenceable(32) %79, i8 0, i64 32, i1 false)
  %80 = load ptr, ptr %12, align 8, !tbaa !33
  %81 = getelementptr inbounds nuw i8, ptr %80, i64 8
  %82 = load ptr, ptr %81, align 8, !tbaa !62
  %83 = getelementptr inbounds nuw i8, ptr %0, i64 32
  %84 = load i64, ptr %83, align 8, !tbaa !34
  %85 = add nsw i64 %84, -15
  %86 = load ptr, ptr %76, align 8, !tbaa !58
  %87 = getelementptr inbounds nuw i8, ptr %86, i64 8
  %88 = call i32 @utext_extract_77(ptr noundef %82, i64 noundef %85, i64 noundef %84, ptr noundef nonnull %87, i32 noundef 16, ptr noundef nonnull %3)
  %89 = load ptr, ptr %12, align 8, !tbaa !33
  %90 = getelementptr inbounds nuw i8, ptr %89, i64 8
  %91 = load ptr, ptr %90, align 8, !tbaa !62
  %92 = load i64, ptr %83, align 8, !tbaa !34
  %93 = add nsw i64 %92, 15
  %94 = load ptr, ptr %76, align 8, !tbaa !58
  %95 = getelementptr inbounds nuw i8, ptr %94, i64 40
  %96 = call i32 @utext_extract_77(ptr noundef %91, i64 noundef %92, i64 noundef %93, ptr noundef nonnull %95, i32 noundef 16, ptr noundef nonnull %3)
  call void @llvm.lifetime.end.p0(i64 4, ptr nonnull %3) #15
  br label %_ZN6icu_7712RegexCompile5errorE10UErrorCode.exit

_ZN6icu_7712RegexCompile5errorE10UErrorCode.exit: ; preds = %74, %32, %56, %2
  %.0 = phi i32 [ 0, %2 ], [ %15, %56 ], [ 0, %32 ], [ %15, %74 ]
  ret i32 %.0
}